target datalayout = "e-m:e-p270:32:32-p271:32:32-p272:64:64-i64:64-i128:128-f80:128-n8:16:32:64-S128"
target triple = "x86_64-pc-linux-gnu"

@H5_libterm_g = external global i8, align 1
@.str = private unnamed_addr constant [103 x i8] c"generated/home/dtcxzyw/WorkSpace/Projects/compilers/llvm-opt-benchmark/bench/hdf5/hdf5/src/H5Tcommit.c\00", align 1
@H5E_CANTINIT_g = external global i64, align 8
@H5T_init_g = external global i8, align 1
@H5E_DATATYPE_g = external global i64, align 8
@.str.30 = private unnamed_addr constant [26 x i8] c"unable to commit datatype\00", align 1
@__func__.H5T__commit_anon = private unnamed_addr constant [17 x i8] c"H5T__commit_anon\00", align 1
@H5E_CANTGET_g = external global i64, align 8
@.str.32 = private unnamed_addr constant [52 x i8] c"unable to get object location of committed datatype\00", align 1
@H5E_CANTDEC_g = external global i64, align 8
@.str.33 = private unnamed_addr constant [53 x i8] c"unable to decrement refcount on newly created object\00", align 1

; Function Attrs: nounwind uwtable
define i32 @H5T__commit_anon(ptr noundef %0, ptr noundef %1, i64 noundef %2) #0 {
  %4 = alloca ptr, align 8
  %5 = alloca ptr, align 8
  %6 = alloca i64, align 8
  %7 = alloca ptr, align 8
  %8 = alloca i32, align 4
  %9 = alloca i8, align 1
  store ptr %0, ptr %4, align 8, !tbaa !49
  store ptr %1, ptr %5, align 8, !tbaa !21
  store i64 %2, ptr %6, align 8, !tbaa !3
  call void @llvm.lifetime.start.p0(i64 8, ptr %7) #7
  call void @llvm.lifetime.start.p0(i64 4, ptr %8) #7
  store i32 0, ptr %8, align 4, !tbaa !10
  call void @llvm.lifetime.start.p0(i64 1, ptr %9) #7
  store i8 0, ptr %9, align 1, !tbaa !12
  %10 = load i8, ptr @H5T_init_g, align 1, !tbaa !12, !range !14, !noundef !15
  %11 = trunc i8 %10 to i1
  br i1 %11, label %16, label %12

12:                                               ; preds = %3
  %13 = load i8, ptr @H5_libterm_g, align 1, !tbaa !12, !range !14, !noundef !15
  %14 = trunc i8 %13 to i1
  %15 = xor i1 %14, true
  br label %16

16:                                               ; preds = %12, %3
  %17 = phi i1 [ true, %3 ], [ %15, %12 ]
  %18 = xor i1 %17, true
  %19 = xor i1 %18, true
  %20 = zext i1 %19 to i32
  %21 = sext i32 %20 to i64
  %22 = call i64 @llvm.expect.i64(i64 %21, i64 1)
  %23 = icmp ne i64 %22, 0
  br i1 %23, label %24, label %97

24:                                               ; preds = %16
  %25 = load ptr, ptr %4, align 8, !tbaa !49
  %26 = load ptr, ptr %5, align 8, !tbaa !21
  %27 = load i64, ptr %6, align 8, !tbaa !3
  %28 = call i32 @H5T__commit(ptr noundef %25, ptr noundef %26, i64 noundef %27)
  %29 = icmp slt i32 %28, 0
  br i1 %29, label %30, label %49

30:                                               ; preds = %24
  br label %31

31:                                               ; preds = %30
  br label %32

32:                                               ; preds = %31
  br label %33

33:                                               ; preds = %32
  %34 = load i64, ptr @H5E_DATATYPE_g, align 8, !tbaa !3
  %35 = load i64, ptr @H5E_CANTINIT_g, align 8, !tbaa !3
  %36 = call i32 (ptr, ptr, i32, i64, i64, ptr, ...) @H5E_printf_stack(ptr noundef @.str, ptr noundef @__func__.H5T__commit_anon, i32 noundef 389, i64 noundef %34, i64 noundef %35, ptr noundef @.str.30)
  br label %37

37:                                               ; preds = %33
  br label %38

38:                                               ; preds = %37
  store i8 1, ptr %9, align 1, !tbaa !12
  %39 = load i8, ptr %9, align 1, !tbaa !12, !range !14, !noundef !15
  %40 = trunc i8 %39 to i1
  %41 = zext i1 %40 to i8
  store i8 %41, ptr %9, align 1, !tbaa !12
  br label %42

42:                                               ; preds = %38
  br label %43

43:                                               ; preds = %42
  br label %44

44:                                               ; preds = %43
  store i32 -1, ptr %8, align 4, !tbaa !10
  br label %96

45:                                               ; No predecessors!
  br label %46

46:                                               ; preds = %45
  br label %47

47:                                               ; preds = %46
  br label %48

48:                                               ; preds = %47
  br label %49

49:                                               ; preds = %48, %24
  %50 = load ptr, ptr %5, align 8, !tbaa !21
  %51 = call ptr @H5T_oloc(ptr noundef %50)
  store ptr %51, ptr %7, align 8, !tbaa !50
  %52 = icmp eq ptr null, %51
  br i1 %52, label %53, label %72

53:                                               ; preds = %49
  br label %54

54:                                               ; preds = %53
  br label %55

55:                                               ; preds = %54
  br label %56

56:                                               ; preds = %55
  %57 = load i64, ptr @H5E_DATATYPE_g, align 8, !tbaa !3
  %58 = load i64, ptr @H5E_CANTGET_g, align 8, !tbaa !3
  %59 = call i32 (ptr, ptr, i32, i64, i64, ptr, ...) @H5E_printf_stack(ptr noundef @.str, ptr noundef @__func__.H5T__commit_anon, i32 noundef 395, i64 noundef %57, i64 noundef %58, ptr noundef @.str.32)
  br label %60

60:                                               ; preds = %56
  br label %61

61:                                               ; preds = %60
  store i8 1, ptr %9, align 1, !tbaa !12
  %62 = load i8, ptr %9, align 1, !tbaa !12, !range !14, !noundef !15
  %63 = trunc i8 %62 to i1
  %64 = zext i1 %63 to i8
  store i8 %64, ptr %9, align 1, !tbaa !12
  br label %65

65:                                               ; preds = %61
  br label %66

66:                                               ; preds = %65
  br label %67

67:                                               ; preds = %66
  store i32 -1, ptr %8, align 4, !tbaa !10
  br label %96

68:                                               ; No predecessors!
  br label %69

69:                                               ; preds = %68
  br label %70

70:                                               ; preds = %69
  br label %71

71:                                               ; preds = %70
  br label %72

72:                                               ; preds = %71, %49
  %73 = load ptr, ptr %7, align 8, !tbaa !50
  %74 = call i32 @H5O_dec_rc_by_loc(ptr noundef %73)
  %75 = icmp slt i32 %74, 0
  br i1 %75, label %76, label %95

76:                                               ; preds = %72
  br label %77

77:                                               ; preds = %76
  br label %78

78:                                               ; preds = %77
  br label %79

79:                                               ; preds = %78
  %80 = load i64, ptr @H5E_DATATYPE_g, align 8, !tbaa !3
  %81 = load i64, ptr @H5E_CANTDEC_g, align 8, !tbaa !3
  %82 = call i32 (ptr, ptr, i32, i64, i64, ptr, ...) @H5E_printf_stack(ptr noundef @.str, ptr noundef @__func__.H5T__commit_anon, i32 noundef 399, i64 noundef %80, i64 noundef %81, ptr noundef @.str.33)
  br label %83

83:                                               ; preds = %79
  br label %84

84:                                               ; preds = %83
  store i8 1, ptr %9, align 1, !tbaa !12
  %85 = load i8, ptr %9, align 1, !tbaa !12, !range !14, !noundef !15
  %86 = trunc i8 %85 to i1
  %87 = zext i1 %86 to i8
  store i8 %87, ptr %9, align 1, !tbaa !12
  br label %88

88:                                               ; preds = %84
  br label %89

89:                                               ; preds = %88
  br label %90

90:                                               ; preds = %89
  store i32 -1, ptr %8, align 4, !tbaa !10
  br label %96

91:                                               ; No predecessors!
  br label %92

92:                                               ; preds = %91
  br label %93

93:                                               ; preds = %92
  br label %94

94:                                               ; preds = %93
  br label %95

95:                                               ; preds = %94, %72
  br label %96

96:                                               ; preds = %95, %90, %67, %44
  br label %97

97:                                               ; preds = %96, %16
  %98 = load i32, ptr %8, align 4, !tbaa !10
  call void @llvm.lifetime.end.p0(i64 1, ptr %9) #7
  call void @llvm.lifetime.end.p0(i64 4, ptr %8) #7
  call void @llvm.lifetime.end.p0(i64 8, ptr %7) #7
  ret i32 %98
}