; Function Attrs: nounwind uwtable
define range(i32 -1, 1) i32 @H5T__commit_anon(ptr noundef %0, ptr noundef %1, i64 noundef %2) local_unnamed_addr #0 {
  %4 = load i8, ptr @H5T_init_g, align 1, !tbaa !3, !range !7, !noundef !8
  %5 = trunc nuw i8 %4 to i1
  %6 = load i8, ptr @H5_libterm_g, align 1, !range !7
  %7 = trunc nuw i8 %6 to i1
  %8 = xor i1 %7, true
  %9 = select i1 %5, i1 true, i1 %8
  br i1 %9, label %10, label %31, !prof !9

10:                                               ; preds = %3
  %11 = tail call i32 @H5T__commit(ptr noundef %0, ptr noundef %1, i64 noundef %2)
  %12 = icmp slt i32 %11, 0
  br i1 %12, label %13, label %17

13:                                               ; preds = %10
  %14 = load i64, ptr @H5E_DATATYPE_g, align 8, !tbaa !11
  %15 = load i64, ptr @H5E_CANTINIT_g, align 8, !tbaa !11
  %16 = tail call i32 (ptr, ptr, i32, i64, i64, ptr, ...) @H5E_printf_stack(ptr noundef nonnull @.str, ptr noundef nonnull @__func__.H5T__commit_anon, i32 noundef 389, i64 noundef %14, i64 noundef %15, ptr noundef nonnull @.str.30) #9
  br label %31

17:                                               ; preds = %10
  %18 = tail call ptr @H5T_oloc(ptr noundef %1) #9
  %19 = icmp eq ptr %18, null
  br i1 %19, label %20, label %24

20:                                               ; preds = %17
  %21 = load i64, ptr @H5E_DATATYPE_g, align 8, !tbaa !11
  %22 = load i64, ptr @H5E_CANTGET_g, align 8, !tbaa !11
  %23 = tail call i32 (ptr, ptr, i32, i64, i64, ptr, ...) @H5E_printf_stack(ptr noundef nonnull @.str, ptr noundef nonnull @__func__.H5T__commit_anon, i32 noundef 395, i64 noundef %21, i64 noundef %22, ptr noundef nonnull @.str.32) #9
  br label %31

24:                                               ; preds = %17
  %25 = tail call i32 @H5O_dec_rc_by_loc(ptr noundef nonnull %18) #9
  %26 = icmp slt i32 %25, 0
  br i1 %26, label %27, label %31

27:                                               ; preds = %24
  %28 = load i64, ptr @H5E_DATATYPE_g, align 8, !tbaa !11
  %29 = load i64, ptr @H5E_CANTDEC_g, align 8, !tbaa !11
  %30 = tail call i32 (ptr, ptr, i32, i64, i64, ptr, ...) @H5E_printf_stack(ptr noundef nonnull @.str, ptr noundef nonnull @__func__.H5T__commit_anon, i32 noundef 399, i64 noundef %28, i64 noundef %29, ptr noundef nonnull @.str.33) #9
  br label %31

31:                                               ; preds = %13, %20, %27, %24, %3
  %.0 = phi i32 [ -1, %13 ], [ -1, %20 ], [ -1, %27 ], [ 0, %24 ], [ 0, %3 ]
  ret i32 %.0
}